target datalayout = "e-m:e-p270:32:32-p271:32:32-p272:64:64-i64:64-i128:128-f80:128-n8:16:32:64-S128"
target triple = "x86_64-pc-linux-gnu"

%"class.absl::lts_20240722::Status" = type { i64 }
%"struct.(anonymous namespace)::non_polling_poller" = type { i64, i8, ptr, ptr }
%"struct.(anonymous namespace)::non_polling_worker" = type { i64, i8, ptr, ptr }

; Function Attrs: mustprogress nounwind uwtable
define linkonce_odr void @_ZN4absl12lts_202407226StatusC2Em(ptr noundef nonnull align 8 dereferenceable(8) %0, i64 noundef %1) unnamed_addr #4 comdat align 2 {
  %3 = alloca ptr, align 8
  %4 = alloca i64, align 8
  store ptr %0, ptr %3, align 8, !tbaa !109
  store i64 %1, ptr %4, align 8, !tbaa !58
  %5 = load ptr, ptr %3, align 8
  %6 = getelementptr inbounds nuw %"class.absl::lts_20240722::Status", ptr %5, i32 0, i32 0
  %7 = load i64, ptr %4, align 8, !tbaa !58
  store i64 %7, ptr %6, align 8, !tbaa !118
  ret void
}

; Function Attrs: mustprogress nounwind uwtable
define linkonce_odr noundef i64 @_ZN4absl12lts_202407226Status16CodeToInlinedRepENS0_10StatusCodeE(i32 noundef %0) #4 comdat align 2 {
  %2 = alloca i32, align 4
  store i32 %0, ptr %2, align 4, !tbaa !283
  %3 = load i32, ptr %2, align 4, !tbaa !283
  %4 = sext i32 %3 to i64
  %5 = shl i64 %4, 2
  %6 = add i64 %5, 1
  ret i64 %6
}

; Function Attrs: inlinehint mustprogress uwtable
define linkonce_odr void @_ZN4absl12lts_202407226StatusC2ENS0_10StatusCodeE(ptr noundef nonnull align 8 dereferenceable(8) %0, i32 noundef %1) unnamed_addr #13 comdat align 2 {
  %3 = alloca ptr, align 8
  %4 = alloca i32, align 4
  store ptr %0, ptr %3, align 8, !tbaa !109
  store i32 %1, ptr %4, align 4, !tbaa !283
  %5 = load ptr, ptr %3, align 8
  %6 = load i32, ptr %4, align 4, !tbaa !283
  %7 = call noundef i64 @_ZN4absl12lts_202407226Status16CodeToInlinedRepENS0_10StatusCodeE(i32 noundef %6)
  call void @_ZN4absl12lts_202407226StatusC2Em(ptr noundef nonnull align 8 dereferenceable(8) %5, i64 noundef %7)
  ret void
}

; Function Attrs: inlinehint mustprogress uwtable
define linkonce_odr void @_ZN4absl12lts_202407226StatusC2Ev(ptr noundef nonnull align 8 dereferenceable(8) %0) unnamed_addr #13 comdat align 2 {
  %2 = alloca ptr, align 8
  store ptr %0, ptr %2, align 8, !tbaa !109
  %3 = load ptr, ptr %2, align 8
  call void @_ZN4absl12lts_202407226StatusC2ENS0_10StatusCodeE(ptr noundef nonnull align 8 dereferenceable(8) %3, i32 noundef 0)
  ret void
}

; Function Attrs: inlinehint mustprogress uwtable
define linkonce_odr void @_ZN4absl12lts_202407228OkStatusEv(ptr dead_on_unwind noalias writable sret(%"class.absl::lts_20240722::Status") align 8 %0) #13 comdat {
  %2 = alloca ptr, align 8
  store ptr %0, ptr %2, align 8
  call void @_ZN4absl12lts_202407226StatusC2Ev(ptr noundef nonnull align 8 dereferenceable(8) %0)
  ret void
}

; Function Attrs: mustprogress uwtable
define internal void @_ZN12_GLOBAL__N_123non_polling_poller_kickEP12grpc_pollsetP19grpc_pollset_worker(ptr dead_on_unwind noalias writable sret(%"class.absl::lts_20240722::Status") align 8 %0, ptr noundef %1, ptr noundef %2) #6 {
  %4 = alloca ptr, align 8
  %5 = alloca ptr, align 8
  %6 = alloca ptr, align 8
  %7 = alloca ptr, align 8
  %8 = alloca ptr, align 8
  store ptr %0, ptr %4, align 8
  store ptr %1, ptr %5, align 8, !tbaa !396
  store ptr %2, ptr %6, align 8, !tbaa !231
  call void @llvm.lifetime.start.p0(i64 8, ptr %7) #3
  %9 = load ptr, ptr %5, align 8, !tbaa !396
  store ptr %9, ptr %7, align 8, !tbaa !400
  %10 = load ptr, ptr %6, align 8, !tbaa !231
  %11 = icmp eq ptr %10, null
  br i1 %11, label %12, label %16

12:                                               ; preds = %3
  %13 = load ptr, ptr %7, align 8, !tbaa !400
  %14 = getelementptr inbounds nuw %"struct.(anonymous namespace)::non_polling_poller", ptr %13, i32 0, i32 2
  %15 = load ptr, ptr %14, align 8, !tbaa !402
  store ptr %15, ptr %6, align 8, !tbaa !231
  br label %16

16:                                               ; preds = %12, %3
  %17 = load ptr, ptr %6, align 8, !tbaa !231
  %18 = icmp ne ptr %17, null
  br i1 %18, label %19, label %31

19:                                               ; preds = %16
  call void @llvm.lifetime.start.p0(i64 8, ptr %8) #3
  %20 = load ptr, ptr %6, align 8, !tbaa !231
  store ptr %20, ptr %8, align 8, !tbaa !405
  %21 = load ptr, ptr %8, align 8, !tbaa !405
  %22 = getelementptr inbounds nuw %"struct.(anonymous namespace)::non_polling_worker", ptr %21, i32 0, i32 1
  %23 = load i8, ptr %22, align 8, !tbaa !406, !range !72, !noundef !73
  %24 = trunc i8 %23 to i1
  br i1 %24, label %30, label %25

25:                                               ; preds = %19
  %26 = load ptr, ptr %8, align 8, !tbaa !405
  %27 = getelementptr inbounds nuw %"struct.(anonymous namespace)::non_polling_worker", ptr %26, i32 0, i32 1
  store i8 1, ptr %27, align 8, !tbaa !406
  %28 = load ptr, ptr %8, align 8, !tbaa !405
  %29 = getelementptr inbounds nuw %"struct.(anonymous namespace)::non_polling_worker", ptr %28, i32 0, i32 0
  call void @gpr_cv_signal(ptr noundef %29)
  br label %30

30:                                               ; preds = %25, %19
  call void @llvm.lifetime.end.p0(i64 8, ptr %8) #3
  br label %34

31:                                               ; preds = %16
  %32 = load ptr, ptr %7, align 8, !tbaa !400
  %33 = getelementptr inbounds nuw %"struct.(anonymous namespace)::non_polling_poller", ptr %32, i32 0, i32 1
  store i8 1, ptr %33, align 8, !tbaa !408
  br label %34

34:                                               ; preds = %31, %30
  call void @_ZN4absl12lts_202407228OkStatusEv(ptr dead_on_unwind writable sret(%"class.absl::lts_20240722::Status") align 8 %0)
  call void @llvm.lifetime.end.p0(i64 8, ptr %7) #3
  ret void
}