; Function Attrs: mustprogress uwtable
define internal void @_ZN12_GLOBAL__N_123non_polling_poller_kickEP12grpc_pollsetP19grpc_pollset_worker(ptr dead_on_unwind noalias writable writeonly sret(%"class.absl::lts_20240722::Status") align 8 captures(none) initializes((0, 8)) %0, ptr noundef captures(none) %1, ptr noundef %2) #8 {
  %4 = icmp eq ptr %2, null
  br i1 %4, label %5, label %.thread

5:                                                ; preds = %3
  %6 = getelementptr inbounds nuw i8, ptr %1, i64 16
  %7 = load ptr, ptr %6, align 8, !tbaa !200
  %.not = icmp eq ptr %7, null
  br i1 %.not, label %12, label %.thread

.thread:                                          ; preds = %3, %5
  %.012 = phi ptr [ %7, %5 ], [ %2, %3 ]
  %8 = getelementptr inbounds nuw i8, ptr %.012, i64 8
  %9 = load i8, ptr %8, align 8, !tbaa !203, !range !56, !noundef !57
  %10 = trunc nuw i8 %9 to i1
  br i1 %10, label %14, label %11

11:                                               ; preds = %.thread
  store i8 1, ptr %8, align 8, !tbaa !203
  tail call void @gpr_cv_signal(ptr noundef nonnull %.012)
  br label %14

12:                                               ; preds = %5
  %13 = getelementptr inbounds nuw i8, ptr %1, i64 8
  store i8 1, ptr %13, align 8, !tbaa !205
  br label %14

14:                                               ; preds = %.thread, %11, %12
  store i64 1, ptr %0, align 8, !tbaa !95, !alias.scope !206
  ret void
}